; Function Attrs: nounwind uwtable
define void @duckdb_je_malloc_stats_print(ptr noundef %0, ptr noundef %1, ptr noundef %2) local_unnamed_addr #2 {
  %4 = alloca %struct.buf_writer_t, align 8
  %5 = load i8, ptr @duckdb_je_tsd_booted, align 1, !tbaa !50, !range !55, !noundef !56
  %6 = trunc nuw i8 %5 to i1
  br i1 %6, label %7, label %tsdn_fetch.exit

7:                                                ; preds = %3
  %8 = tail call nonnull align 8 ptr @llvm.threadlocal.address.p0(ptr align 8 @duckdb_je_tsd_tls)
  %9 = getelementptr inbounds nuw i8, ptr %8, i64 824
  %10 = load i8, ptr %9, align 8, !tbaa !10
  %.not.i = icmp eq i8 %10, 0
  br i1 %.not.i, label %tsdn_fetch.exit, label %11, !prof !9

11:                                               ; preds = %7
  %12 = tail call ptr @duckdb_je_tsd_fetch_slow(ptr noundef nonnull %8, i1 noundef zeroext false) #21
  br label %tsdn_fetch.exit

tsdn_fetch.exit:                                  ; preds = %11, %7, %3
  %.0.i = phi ptr [ null, %3 ], [ %12, %11 ], [ %8, %7 ]
  call void @llvm.lifetime.start.p0(i64 48, ptr nonnull %4) #21
  %13 = call zeroext i1 @duckdb_je_buf_writer_init(ptr noundef %.0.i, ptr noundef nonnull %4, ptr noundef %0, ptr noundef %1, ptr noundef null, i64 noundef 65536) #21
  call void @duckdb_je_stats_print(ptr noundef nonnull @duckdb_je_buf_writer_cb, ptr noundef nonnull %4, ptr noundef %2) #21
  call void @duckdb_je_buf_writer_terminate(ptr noundef %.0.i, ptr noundef nonnull %4) #21
  call void @llvm.lifetime.end.p0(i64 48, ptr nonnull %4) #21
  ret void
}